target datalayout = "e-m:e-p270:32:32-p271:32:32-p272:64:64-i64:64-i128:128-f80:128-n8:16:32:64-S128"
target triple = "x86_64-unknown-linux-gnu"

%"class.llvh::StringRef" = type { ptr, i64 }
%"class.std::__cxx11::basic_string" = type { %"struct.std::__cxx11::basic_string<char>::_Alloc_hider", i64, %union.anon.13 }
%"struct.std::__cxx11::basic_string<char>::_Alloc_hider" = type { ptr }
%union.anon.13 = type { i64, [8 x i8] }
%"struct.facebook::hermes::tracing::SynthTrace::Record" = type { ptr, %"class.std::chrono::duration" }
%"class.std::chrono::duration" = type { i64 }
%"struct.facebook::hermes::tracing::SynthTrace::GetOrSetPropertyNativeRecord" = type { %"struct.facebook::hermes::tracing::SynthTrace::Record", i64, i64, %"class.std::__cxx11::basic_string" }

@.str.47 = private unnamed_addr constant [11 x i8] c"propNameID\00", align 1
@.str.75 = private unnamed_addr constant [13 x i8] c"hostObjectID\00", align 1
@.str.76 = private unnamed_addr constant [9 x i8] c"propName\00", align 1

; Function Attrs: mustprogress uwtable
define linkonce_odr hidden void @_ZN6hermes11JSONEmitter12emitKeyValueINSt7__cxx1112basic_stringIcSt11char_traitsIcESaIcEEEEEvN4llvh9StringRefERKT_(ptr noundef nonnull align 8 dereferenceable(72) %this, ptr %key.coerce0, i64 %key.coerce1, ptr noundef nonnull align 8 dereferenceable(32) %val) #1 comdat align 2 {
entry:
  %this.addr.i = alloca ptr, align 8
  %Str.addr.i = alloca ptr, align 8
  %key = alloca %"class.llvh::StringRef", align 8
  %this.addr = alloca ptr, align 8
  %val.addr = alloca ptr, align 8
  %agg.tmp = alloca %"class.llvh::StringRef", align 8
  %agg.tmp2 = alloca %"class.llvh::StringRef", align 8
  %0 = getelementptr inbounds { ptr, i64 }, ptr %key, i32 0, i32 0
  store ptr %key.coerce0, ptr %0, align 8
  %1 = getelementptr inbounds { ptr, i64 }, ptr %key, i32 0, i32 1
  store i64 %key.coerce1, ptr %1, align 8
  store ptr %this, ptr %this.addr, align 8
  store ptr %val, ptr %val.addr, align 8
  %this1 = load ptr, ptr %this.addr, align 8
  call void @llvm.memcpy.p0.p0.i64(ptr align 8 %agg.tmp, ptr align 8 %key, i64 16, i1 false)
  %2 = getelementptr inbounds { ptr, i64 }, ptr %agg.tmp, i32 0, i32 0
  %3 = load ptr, ptr %2, align 8
  %4 = getelementptr inbounds { ptr, i64 }, ptr %agg.tmp, i32 0, i32 1
  %5 = load i64, ptr %4, align 8
  call void @_ZN6hermes11JSONEmitter7emitKeyEN4llvh9StringRefE(ptr noundef nonnull align 8 dereferenceable(72) %this1, ptr %3, i64 %5)
  %6 = load ptr, ptr %val.addr, align 8
  store ptr %agg.tmp2, ptr %this.addr.i, align 8
  store ptr %6, ptr %Str.addr.i, align 8
  %this1.i = load ptr, ptr %this.addr.i, align 8
  %7 = load ptr, ptr %Str.addr.i, align 8
  %call.i = call noundef ptr @_ZNKSt7__cxx1112basic_stringIcSt11char_traitsIcESaIcEE4dataEv(ptr noundef nonnull align 8 dereferenceable(32) %7) #13
  store ptr %call.i, ptr %this1.i, align 8
  %Length.i = getelementptr inbounds %"class.llvh::StringRef", ptr %this1.i, i32 0, i32 1
  %8 = load ptr, ptr %Str.addr.i, align 8
  %call2.i = call noundef i64 @_ZNKSt7__cxx1112basic_stringIcSt11char_traitsIcESaIcEE6lengthEv(ptr noundef nonnull align 8 dereferenceable(32) %8) #13
  store i64 %call2.i, ptr %Length.i, align 8
  %9 = getelementptr inbounds { ptr, i64 }, ptr %agg.tmp2, i32 0, i32 0
  %10 = load ptr, ptr %9, align 8
  %11 = getelementptr inbounds { ptr, i64 }, ptr %agg.tmp2, i32 0, i32 1
  %12 = load i64, ptr %11, align 8
  call void @_ZN6hermes11JSONEmitter9emitValueEN4llvh9StringRefE(ptr noundef nonnull align 8 dereferenceable(72) %this1, ptr %10, i64 %12)
  ret void
}

; Function Attrs: mustprogress uwtable
define linkonce_odr hidden void @_ZN6hermes11JSONEmitter12emitKeyValueImEEvN4llvh9StringRefERKT_(ptr noundef nonnull align 8 dereferenceable(72) %this, ptr %key.coerce0, i64 %key.coerce1, ptr noundef nonnull align 8 dereferenceable(8) %val) #1 comdat align 2 {
entry:
  %key = alloca %"class.llvh::StringRef", align 8
  %this.addr = alloca ptr, align 8
  %val.addr = alloca ptr, align 8
  %agg.tmp = alloca %"class.llvh::StringRef", align 8
  %0 = getelementptr inbounds { ptr, i64 }, ptr %key, i32 0, i32 0
  store ptr %key.coerce0, ptr %0, align 8
  %1 = getelementptr inbounds { ptr, i64 }, ptr %key, i32 0, i32 1
  store i64 %key.coerce1, ptr %1, align 8
  store ptr %this, ptr %this.addr, align 8
  store ptr %val, ptr %val.addr, align 8
  %this1 = load ptr, ptr %this.addr, align 8
  call void @llvm.memcpy.p0.p0.i64(ptr align 8 %agg.tmp, ptr align 8 %key, i64 16, i1 false)
  %2 = getelementptr inbounds { ptr, i64 }, ptr %agg.tmp, i32 0, i32 0
  %3 = load ptr, ptr %2, align 8
  %4 = getelementptr inbounds { ptr, i64 }, ptr %agg.tmp, i32 0, i32 1
  %5 = load i64, ptr %4, align 8
  call void @_ZN6hermes11JSONEmitter7emitKeyEN4llvh9StringRefE(ptr noundef nonnull align 8 dereferenceable(72) %this1, ptr %3, i64 %5)
  %6 = load ptr, ptr %val.addr, align 8
  %7 = load i64, ptr %6, align 8
  call void @_ZN6hermes11JSONEmitter9emitValueEm(ptr noundef nonnull align 8 dereferenceable(72) %this1, i64 noundef %7)
  ret void
}

; Function Attrs: mustprogress uwtable
define hidden void @_ZNK8facebook6hermes7tracing10SynthTrace28GetOrSetPropertyNativeRecord14toJSONInternalERN6hermes11JSONEmitterE(ptr noundef nonnull align 8 dereferenceable(64) %this, ptr noundef nonnull align 8 dereferenceable(72) %json) unnamed_addr #1 align 2 {
entry:
  %this.addr.i14 = alloca ptr, align 8
  %Str.addr.i15 = alloca ptr, align 8
  %this.addr.i4 = alloca ptr, align 8
  %Str.addr.i5 = alloca ptr, align 8
  %this.addr.i = alloca ptr, align 8
  %Str.addr.i = alloca ptr, align 8
  %this.addr = alloca ptr, align 8
  %json.addr = alloca ptr, align 8
  %agg.tmp = alloca %"class.llvh::StringRef", align 8
  %agg.tmp2 = alloca %"class.llvh::StringRef", align 8
  %agg.tmp3 = alloca %"class.llvh::StringRef", align 8
  store ptr %this, ptr %this.addr, align 8
  store ptr %json, ptr %json.addr, align 8
  %this1 = load ptr, ptr %this.addr, align 8
  %0 = load ptr, ptr %json.addr, align 8
  call void @_ZNK8facebook6hermes7tracing10SynthTrace6Record14toJSONInternalERN6hermes11JSONEmitterE(ptr noundef nonnull align 8 dereferenceable(16) %this1, ptr noundef nonnull align 8 dereferenceable(72) %0)
  %1 = load ptr, ptr %json.addr, align 8
  store ptr %agg.tmp, ptr %this.addr.i, align 8
  store ptr @.str.75, ptr %Str.addr.i, align 8
  %this1.i = load ptr, ptr %this.addr.i, align 8
  %2 = load ptr, ptr %Str.addr.i, align 8
  store ptr %2, ptr %this1.i, align 8
  %Length.i = getelementptr inbounds %"class.llvh::StringRef", ptr %this1.i, i32 0, i32 1
  %3 = load ptr, ptr %Str.addr.i, align 8
  %tobool.i = icmp ne ptr %3, null
  br i1 %tobool.i, label %cond.true.i, label %cond.false.i

cond.true.i:                                      ; preds = %entry
  %4 = load ptr, ptr %Str.addr.i, align 8
  %call.i = call i64 @strlen(ptr noundef %4) #4
  br label %_ZN4llvh9StringRefC2EPKc.exit

cond.false.i:                                     ; preds = %entry
  br label %_ZN4llvh9StringRefC2EPKc.exit

_ZN4llvh9StringRefC2EPKc.exit:                    ; preds = %cond.false.i, %cond.true.i
  %cond.i = phi i64 [ %call.i, %cond.true.i ], [ 0, %cond.false.i ]
  store i64 %cond.i, ptr %Length.i, align 8
  %hostObjectID_ = getelementptr inbounds %"struct.facebook::hermes::tracing::SynthTrace::GetOrSetPropertyNativeRecord", ptr %this1, i32 0, i32 1
  %5 = getelementptr inbounds { ptr, i64 }, ptr %agg.tmp, i32 0, i32 0
  %6 = load ptr, ptr %5, align 8
  %7 = getelementptr inbounds { ptr, i64 }, ptr %agg.tmp, i32 0, i32 1
  %8 = load i64, ptr %7, align 8
  call void @_ZN6hermes11JSONEmitter12emitKeyValueImEEvN4llvh9StringRefERKT_(ptr noundef nonnull align 8 dereferenceable(72) %1, ptr %6, i64 %8, ptr noundef nonnull align 8 dereferenceable(8) %hostObjectID_)
  %9 = load ptr, ptr %json.addr, align 8
  store ptr %agg.tmp2, ptr %this.addr.i4, align 8
  store ptr @.str.47, ptr %Str.addr.i5, align 8
  %this1.i6 = load ptr, ptr %this.addr.i4, align 8
  %10 = load ptr, ptr %Str.addr.i5, align 8
  store ptr %10, ptr %this1.i6, align 8
  %Length.i7 = getelementptr inbounds %"class.llvh::StringRef", ptr %this1.i6, i32 0, i32 1
  %11 = load ptr, ptr %Str.addr.i5, align 8
  %tobool.i8 = icmp ne ptr %11, null
  br i1 %tobool.i8, label %cond.true.i11, label %cond.false.i9

cond.true.i11:                                    ; preds = %_ZN4llvh9StringRefC2EPKc.exit
  %12 = load ptr, ptr %Str.addr.i5, align 8
  %call.i12 = call i64 @strlen(ptr noundef %12) #4
  br label %_ZN4llvh9StringRefC2EPKc.exit13

cond.false.i9:                                    ; preds = %_ZN4llvh9StringRefC2EPKc.exit
  br label %_ZN4llvh9StringRefC2EPKc.exit13

_ZN4llvh9StringRefC2EPKc.exit13:                  ; preds = %cond.false.i9, %cond.true.i11
  %cond.i10 = phi i64 [ %call.i12, %cond.true.i11 ], [ 0, %cond.false.i9 ]
  store i64 %cond.i10, ptr %Length.i7, align 8
  %propNameID_ = getelementptr inbounds %"struct.facebook::hermes::tracing::SynthTrace::GetOrSetPropertyNativeRecord", ptr %this1, i32 0, i32 2
  %13 = getelementptr inbounds { ptr, i64 }, ptr %agg.tmp2, i32 0, i32 0
  %14 = load ptr, ptr %13, align 8
  %15 = getelementptr inbounds { ptr, i64 }, ptr %agg.tmp2, i32 0, i32 1
  %16 = load i64, ptr %15, align 8
  call void @_ZN6hermes11JSONEmitter12emitKeyValueImEEvN4llvh9StringRefERKT_(ptr noundef nonnull align 8 dereferenceable(72) %9, ptr %14, i64 %16, ptr noundef nonnull align 8 dereferenceable(8) %propNameID_)
  %17 = load ptr, ptr %json.addr, align 8
  store ptr %agg.tmp3, ptr %this.addr.i14, align 8
  store ptr @.str.76, ptr %Str.addr.i15, align 8
  %this1.i16 = load ptr, ptr %this.addr.i14, align 8
  %18 = load ptr, ptr %Str.addr.i15, align 8
  store ptr %18, ptr %this1.i16, align 8
  %Length.i17 = getelementptr inbounds %"class.llvh::StringRef", ptr %this1.i16, i32 0, i32 1
  %19 = load ptr, ptr %Str.addr.i15, align 8
  %tobool.i18 = icmp ne ptr %19, null
  br i1 %tobool.i18, label %cond.true.i21, label %cond.false.i19

cond.true.i21:                                    ; preds = %_ZN4llvh9StringRefC2EPKc.exit13
  %20 = load ptr, ptr %Str.addr.i15, align 8
  %call.i22 = call i64 @strlen(ptr noundef %20) #4
  br label %_ZN4llvh9StringRefC2EPKc.exit23

cond.false.i19:                                   ; preds = %_ZN4llvh9StringRefC2EPKc.exit13
  br label %_ZN4llvh9StringRefC2EPKc.exit23

_ZN4llvh9StringRefC2EPKc.exit23:                  ; preds = %cond.false.i19, %cond.true.i21
  %cond.i20 = phi i64 [ %call.i22, %cond.true.i21 ], [ 0, %cond.false.i19 ]
  store i64 %cond.i20, ptr %Length.i17, align 8
  %propName_ = getelementptr inbounds %"struct.facebook::hermes::tracing::SynthTrace::GetOrSetPropertyNativeRecord", ptr %this1, i32 0, i32 3
  %21 = getelementptr inbounds { ptr, i64 }, ptr %agg.tmp3, i32 0, i32 0
  %22 = load ptr, ptr %21, align 8
  %23 = getelementptr inbounds { ptr, i64 }, ptr %agg.tmp3, i32 0, i32 1
  %24 = load i64, ptr %23, align 8
  call void @_ZN6hermes11JSONEmitter12emitKeyValueINSt7__cxx1112basic_stringIcSt11char_traitsIcESaIcEEEEEvN4llvh9StringRefERKT_(ptr noundef nonnull align 8 dereferenceable(72) %17, ptr %22, i64 %24, ptr noundef nonnull align 8 dereferenceable(32) %propName_)
  ret void
}