; Function Attrs: mustprogress uwtable
define hidden void @_ZNK8facebook6hermes7tracing10SynthTrace28GetOrSetPropertyNativeRecord14toJSONInternalERN6hermes11JSONEmitterE(ptr noundef nonnull align 8 dereferenceable(64) %this, ptr noundef nonnull align 8 dereferenceable(72) %json) unnamed_addr #1 align 2 {
entry:
  tail call void @_ZNK8facebook6hermes7tracing10SynthTrace6Record14toJSONInternalERN6hermes11JSONEmitterE(ptr noundef nonnull align 8 dereferenceable(16) %this, ptr noundef nonnull align 8 dereferenceable(72) %json)
  %hostObjectID_ = getelementptr inbounds i8, ptr %this, i64 16
  tail call void @_ZN6hermes11JSONEmitter7emitKeyEN4llvh9StringRefE(ptr noundef nonnull align 8 dereferenceable(72) %json, ptr nonnull @.str.75, i64 12)
  %0 = load i64, ptr %hostObjectID_, align 8
  tail call void @_ZN6hermes11JSONEmitter9emitValueEm(ptr noundef nonnull align 8 dereferenceable(72) %json, i64 noundef %0)
  %propNameID_ = getelementptr inbounds i8, ptr %this, i64 24
  tail call void @_ZN6hermes11JSONEmitter7emitKeyEN4llvh9StringRefE(ptr noundef nonnull align 8 dereferenceable(72) %json, ptr nonnull @.str.47, i64 10)
  %1 = load i64, ptr %propNameID_, align 8
  tail call void @_ZN6hermes11JSONEmitter9emitValueEm(ptr noundef nonnull align 8 dereferenceable(72) %json, i64 noundef %1)
  %propName_ = getelementptr inbounds i8, ptr %this, i64 32
  tail call void @_ZN6hermes11JSONEmitter7emitKeyEN4llvh9StringRefE(ptr noundef nonnull align 8 dereferenceable(72) %json, ptr nonnull @.str.76, i64 8)
  %call.i.i = tail call noundef ptr @_ZNKSt7__cxx1112basic_stringIcSt11char_traitsIcESaIcEE4dataEv(ptr noundef nonnull align 8 dereferenceable(32) %propName_) #23
  %call2.i.i = tail call noundef i64 @_ZNKSt7__cxx1112basic_stringIcSt11char_traitsIcESaIcEE6lengthEv(ptr noundef nonnull align 8 dereferenceable(32) %propName_) #23
  tail call void @_ZN6hermes11JSONEmitter9emitValueEN4llvh9StringRefE(ptr noundef nonnull align 8 dereferenceable(72) %json, ptr %call.i.i, i64 %call2.i.i)
  ret void
}